target datalayout = "e-m:e-p270:32:32-p271:32:32-p272:64:64-i64:64-i128:128-f80:128-n8:16:32:64-S128"
target triple = "x86_64-pc-linux-gnu"

%struct.Dec_Node_t_ = type { %struct.Dec_Edge_t_, %struct.Dec_Edge_t_, %union.anon, i32 }
%struct.Dec_Edge_t_ = type { i32 }
%union.anon = type { ptr }
%struct.Dec_Graph_t_ = type { i32, i32, i32, i32, ptr, %struct.Dec_Edge_t_ }
%struct.Vec_Int_t_ = type { i32, i32, ptr }

; Function Attrs: inlinehint nounwind uwtable
define internal ptr @Dec_GraphVar(ptr noundef %0) #2 {
  %2 = alloca ptr, align 8
  store ptr %0, ptr %2, align 8, !tbaa !8
  %3 = load ptr, ptr %2, align 8, !tbaa !8
  %4 = load ptr, ptr %2, align 8, !tbaa !8
  %5 = getelementptr inbounds nuw %struct.Dec_Graph_t_, ptr %4, i32 0, i32 5
  %6 = load i32, ptr %5, align 8
  %7 = lshr i32 %6, 1
  %8 = and i32 %7, 1073741823
  %9 = call ptr @Dec_GraphNode(ptr noundef %3, i32 noundef %8)
  ret ptr %9
}

; Function Attrs: inlinehint nounwind uwtable
define internal i32 @Dec_GraphIsVar(ptr noundef %0) #2 {
  %2 = alloca ptr, align 8
  store ptr %0, ptr %2, align 8, !tbaa !8
  %3 = load ptr, ptr %2, align 8, !tbaa !8
  %4 = getelementptr inbounds nuw %struct.Dec_Graph_t_, ptr %3, i32 0, i32 5
  %5 = load i32, ptr %4, align 8
  %6 = lshr i32 %5, 1
  %7 = and i32 %6, 1073741823
  %8 = load ptr, ptr %2, align 8, !tbaa !8
  %9 = getelementptr inbounds nuw %struct.Dec_Graph_t_, ptr %8, i32 0, i32 1
  %10 = load i32, ptr %9, align 4, !tbaa !13
  %11 = icmp ult i32 %7, %10
  %12 = zext i1 %11 to i32
  ret i32 %12
}

; Function Attrs: inlinehint nounwind uwtable
define internal i32 @Abc_LitNotCond(i32 noundef %0, i32 noundef %1) #2 {
  %3 = alloca i32, align 4
  %4 = alloca i32, align 4
  store i32 %0, ptr %3, align 4, !tbaa !17
  store i32 %1, ptr %4, align 4, !tbaa !17
  %5 = load i32, ptr %3, align 4, !tbaa !17
  %6 = load i32, ptr %4, align 4, !tbaa !17
  %7 = icmp sgt i32 %6, 0
  %8 = zext i1 %7 to i32
  %9 = xor i32 %5, %8
  ret i32 %9
}

; Function Attrs: inlinehint nounwind uwtable
define internal i32 @Dec_GraphIsComplement(ptr noundef %0) #2 {
  %2 = alloca ptr, align 8
  store ptr %0, ptr %2, align 8, !tbaa !8
  %3 = load ptr, ptr %2, align 8, !tbaa !8
  %4 = getelementptr inbounds nuw %struct.Dec_Graph_t_, ptr %3, i32 0, i32 5
  %5 = load i32, ptr %4, align 8
  %6 = and i32 %5, 1
  ret i32 %6
}

; Function Attrs: inlinehint nounwind uwtable
define internal i32 @Dec_GraphIsConst(ptr noundef %0) #2 {
  %2 = alloca ptr, align 8
  store ptr %0, ptr %2, align 8, !tbaa !8
  %3 = load ptr, ptr %2, align 8, !tbaa !8
  %4 = getelementptr inbounds nuw %struct.Dec_Graph_t_, ptr %3, i32 0, i32 0
  %5 = load i32, ptr %4, align 8, !tbaa !21
  ret i32 %5
}

; Function Attrs: nounwind uwtable
define i32 @Gia_ManGraphToAig(ptr noundef %0, ptr noundef %1) #0 {
  %3 = alloca i32, align 4
  %4 = alloca ptr, align 8
  %5 = alloca ptr, align 8
  %6 = alloca ptr, align 8
  %7 = alloca i32, align 4
  %8 = alloca i32, align 4
  %9 = alloca i32, align 4
  %10 = alloca i32, align 4
  store ptr %0, ptr %4, align 8, !tbaa !3
  store ptr %1, ptr %5, align 8, !tbaa !8
  call void @llvm.lifetime.start.p0(i64 8, ptr %6) #11
  store ptr null, ptr %6, align 8, !tbaa !10
  call void @llvm.lifetime.start.p0(i64 4, ptr %7) #11
  call void @llvm.lifetime.start.p0(i64 4, ptr %8) #11
  call void @llvm.lifetime.start.p0(i64 4, ptr %9) #11
  %11 = load ptr, ptr %5, align 8, !tbaa !8
  %12 = call i32 @Dec_GraphIsConst(ptr noundef %11)
  %13 = icmp ne i32 %12, 0
  br i1 %13, label %14, label %18

14:                                               ; preds = %2
  %15 = load ptr, ptr %5, align 8, !tbaa !8
  %16 = call i32 @Dec_GraphIsComplement(ptr noundef %15)
  %17 = call i32 @Abc_LitNotCond(i32 noundef 1, i32 noundef %16)
  store i32 %17, ptr %3, align 4
  store i32 1, ptr %10, align 4
  br label %91

18:                                               ; preds = %2
  %19 = load ptr, ptr %5, align 8, !tbaa !8
  %20 = call i32 @Dec_GraphIsVar(ptr noundef %19)
  %21 = icmp ne i32 %20, 0
  br i1 %21, label %22, label %30

22:                                               ; preds = %18
  %23 = load ptr, ptr %5, align 8, !tbaa !8
  %24 = call ptr @Dec_GraphVar(ptr noundef %23)
  %25 = getelementptr inbounds nuw %struct.Dec_Node_t_, ptr %24, i32 0, i32 2
  %26 = load i32, ptr %25, align 8, !tbaa !12
  %27 = load ptr, ptr %5, align 8, !tbaa !8
  %28 = call i32 @Dec_GraphIsComplement(ptr noundef %27)
  %29 = call i32 @Abc_LitNotCond(i32 noundef %26, i32 noundef %28)
  store i32 %29, ptr %3, align 4
  store i32 1, ptr %10, align 4
  br label %91

30:                                               ; preds = %18
  %31 = load ptr, ptr %5, align 8, !tbaa !8
  %32 = getelementptr inbounds nuw %struct.Dec_Graph_t_, ptr %31, i32 0, i32 1
  %33 = load i32, ptr %32, align 4, !tbaa !13
  store i32 %33, ptr %7, align 4, !tbaa !17
  br label %34

34:                                               ; preds = %81, %30
  %35 = load i32, ptr %7, align 4, !tbaa !17
  %36 = load ptr, ptr %5, align 8, !tbaa !8
  %37 = getelementptr inbounds nuw %struct.Dec_Graph_t_, ptr %36, i32 0, i32 2
  %38 = load i32, ptr %37, align 8, !tbaa !18
  %39 = icmp slt i32 %35, %38
  br i1 %39, label %40, label %44

40:                                               ; preds = %34
  %41 = load ptr, ptr %5, align 8, !tbaa !8
  %42 = load i32, ptr %7, align 4, !tbaa !17
  %43 = call ptr @Dec_GraphNode(ptr noundef %41, i32 noundef %42)
  store ptr %43, ptr %6, align 8, !tbaa !10
  br label %44

44:                                               ; preds = %40, %34
  %45 = phi i1 [ false, %34 ], [ true, %40 ]
  br i1 %45, label %46, label %84

46:                                               ; preds = %44
  %47 = load ptr, ptr %5, align 8, !tbaa !8
  %48 = load ptr, ptr %6, align 8, !tbaa !10
  %49 = getelementptr inbounds nuw %struct.Dec_Node_t_, ptr %48, i32 0, i32 0
  %50 = load i32, ptr %49, align 8
  %51 = lshr i32 %50, 1
  %52 = and i32 %51, 1073741823
  %53 = call ptr @Dec_GraphNode(ptr noundef %47, i32 noundef %52)
  %54 = getelementptr inbounds nuw %struct.Dec_Node_t_, ptr %53, i32 0, i32 2
  %55 = load i32, ptr %54, align 8, !tbaa !12
  %56 = load ptr, ptr %6, align 8, !tbaa !10
  %57 = getelementptr inbounds nuw %struct.Dec_Node_t_, ptr %56, i32 0, i32 0
  %58 = load i32, ptr %57, align 8
  %59 = and i32 %58, 1
  %60 = call i32 @Abc_LitNotCond(i32 noundef %55, i32 noundef %59)
  store i32 %60, ptr %8, align 4, !tbaa !17
  %61 = load ptr, ptr %5, align 8, !tbaa !8
  %62 = load ptr, ptr %6, align 8, !tbaa !10
  %63 = getelementptr inbounds nuw %struct.Dec_Node_t_, ptr %62, i32 0, i32 1
  %64 = load i32, ptr %63, align 4
  %65 = lshr i32 %64, 1
  %66 = and i32 %65, 1073741823
  %67 = call ptr @Dec_GraphNode(ptr noundef %61, i32 noundef %66)
  %68 = getelementptr inbounds nuw %struct.Dec_Node_t_, ptr %67, i32 0, i32 2
  %69 = load i32, ptr %68, align 8, !tbaa !12
  %70 = load ptr, ptr %6, align 8, !tbaa !10
  %71 = getelementptr inbounds nuw %struct.Dec_Node_t_, ptr %70, i32 0, i32 1
  %72 = load i32, ptr %71, align 4
  %73 = and i32 %72, 1
  %74 = call i32 @Abc_LitNotCond(i32 noundef %69, i32 noundef %73)
  store i32 %74, ptr %9, align 4, !tbaa !17
  %75 = load ptr, ptr %4, align 8, !tbaa !3
  %76 = load i32, ptr %8, align 4, !tbaa !17
  %77 = load i32, ptr %9, align 4, !tbaa !17
  %78 = call i32 @Gia_ManHashAnd(ptr noundef %75, i32 noundef %76, i32 noundef %77)
  %79 = load ptr, ptr %6, align 8, !tbaa !10
  %80 = getelementptr inbounds nuw %struct.Dec_Node_t_, ptr %79, i32 0, i32 2
  store i32 %78, ptr %80, align 8, !tbaa !12
  br label %81

81:                                               ; preds = %46
  %82 = load i32, ptr %7, align 4, !tbaa !17
  %83 = add nsw i32 %82, 1
  store i32 %83, ptr %7, align 4, !tbaa !17
  br label %34, !llvm.loop !19

84:                                               ; preds = %44
  %85 = load ptr, ptr %6, align 8, !tbaa !10
  %86 = getelementptr inbounds nuw %struct.Dec_Node_t_, ptr %85, i32 0, i32 2
  %87 = load i32, ptr %86, align 8, !tbaa !12
  %88 = load ptr, ptr %5, align 8, !tbaa !8
  %89 = call i32 @Dec_GraphIsComplement(ptr noundef %88)
  %90 = call i32 @Abc_LitNotCond(i32 noundef %87, i32 noundef %89)
  store i32 %90, ptr %3, align 4
  store i32 1, ptr %10, align 4
  br label %91

91:                                               ; preds = %84, %22, %14
  call void @llvm.lifetime.end.p0(i64 4, ptr %9) #11
  call void @llvm.lifetime.end.p0(i64 4, ptr %8) #11
  call void @llvm.lifetime.end.p0(i64 4, ptr %7) #11
  call void @llvm.lifetime.end.p0(i64 8, ptr %6) #11
  %92 = load i32, ptr %3, align 4
  ret i32 %92
}

; Function Attrs: inlinehint nounwind uwtable
define internal i32 @Vec_IntEntry(ptr noundef %0, i32 noundef %1) #2 {
  %3 = alloca ptr, align 8
  %4 = alloca i32, align 4
  store ptr %0, ptr %3, align 8, !tbaa !25
  store i32 %1, ptr %4, align 4, !tbaa !17
  %5 = load ptr, ptr %3, align 8, !tbaa !25
  %6 = getelementptr inbounds nuw %struct.Vec_Int_t_, ptr %5, i32 0, i32 2
  %7 = load ptr, ptr %6, align 8, !tbaa !29
  %8 = load i32, ptr %4, align 4, !tbaa !17
  %9 = sext i32 %8 to i64
  %10 = getelementptr inbounds i32, ptr %7, i64 %9
  %11 = load i32, ptr %10, align 4, !tbaa !17
  ret i32 %11
}

; Function Attrs: inlinehint nounwind uwtable
define internal ptr @Dec_GraphNode(ptr noundef %0, i32 noundef %1) #2 {
  %3 = alloca ptr, align 8
  %4 = alloca i32, align 4
  store ptr %0, ptr %3, align 8, !tbaa !8
  store i32 %1, ptr %4, align 4, !tbaa !17
  %5 = load ptr, ptr %3, align 8, !tbaa !8
  %6 = getelementptr inbounds nuw %struct.Dec_Graph_t_, ptr %5, i32 0, i32 4
  %7 = load ptr, ptr %6, align 8, !tbaa !22
  %8 = load i32, ptr %4, align 4, !tbaa !17
  %9 = sext i32 %8 to i64
  %10 = getelementptr inbounds %struct.Dec_Node_t_, ptr %7, i64 %9
  ret ptr %10
}

; Function Attrs: nounwind uwtable
define i32 @Gia_ManFactorGraph(ptr noundef %0, ptr noundef %1, ptr noundef %2) #0 {
  %4 = alloca ptr, align 8
  %5 = alloca ptr, align 8
  %6 = alloca ptr, align 8
  %7 = alloca ptr, align 8
  %8 = alloca i32, align 4
  %9 = alloca i32, align 4
  store ptr %0, ptr %4, align 8, !tbaa !3
  store ptr %1, ptr %5, align 8, !tbaa !8
  store ptr %2, ptr %6, align 8, !tbaa !25
  call void @llvm.lifetime.start.p0(i64 8, ptr %7) #11
  call void @llvm.lifetime.start.p0(i64 4, ptr %8) #11
  call void @llvm.lifetime.start.p0(i64 4, ptr %9) #11
  store i32 0, ptr %8, align 4, !tbaa !17
  br label %10

10:                                               ; preds = %28, %3
  %11 = load i32, ptr %8, align 4, !tbaa !17
  %12 = load ptr, ptr %5, align 8, !tbaa !8
  %13 = getelementptr inbounds nuw %struct.Dec_Graph_t_, ptr %12, i32 0, i32 1
  %14 = load i32, ptr %13, align 4, !tbaa !13
  %15 = icmp slt i32 %11, %14
  br i1 %15, label %16, label %20

16:                                               ; preds = %10
  %17 = load ptr, ptr %5, align 8, !tbaa !8
  %18 = load i32, ptr %8, align 4, !tbaa !17
  %19 = call ptr @Dec_GraphNode(ptr noundef %17, i32 noundef %18)
  store ptr %19, ptr %7, align 8, !tbaa !10
  br label %20

20:                                               ; preds = %16, %10
  %21 = phi i1 [ false, %10 ], [ true, %16 ]
  br i1 %21, label %22, label %31

22:                                               ; preds = %20
  %23 = load ptr, ptr %6, align 8, !tbaa !25
  %24 = load i32, ptr %8, align 4, !tbaa !17
  %25 = call i32 @Vec_IntEntry(ptr noundef %23, i32 noundef %24)
  %26 = load ptr, ptr %7, align 8, !tbaa !10
  %27 = getelementptr inbounds nuw %struct.Dec_Node_t_, ptr %26, i32 0, i32 2
  store i32 %25, ptr %27, align 8, !tbaa !12
  br label %28

28:                                               ; preds = %22
  %29 = load i32, ptr %8, align 4, !tbaa !17
  %30 = add nsw i32 %29, 1
  store i32 %30, ptr %8, align 4, !tbaa !17
  br label %10, !llvm.loop !32

31:                                               ; preds = %20
  %32 = load ptr, ptr %4, align 8, !tbaa !3
  %33 = load ptr, ptr %5, align 8, !tbaa !8
  %34 = call i32 @Gia_ManGraphToAig(ptr noundef %32, ptr noundef %33)
  store i32 %34, ptr %9, align 4, !tbaa !17
  %35 = load i32, ptr %9, align 4, !tbaa !17
  call void @llvm.lifetime.end.p0(i64 4, ptr %9) #11
  call void @llvm.lifetime.end.p0(i64 4, ptr %8) #11
  call void @llvm.lifetime.end.p0(i64 8, ptr %7) #11
  ret i32 %35
}