; Function Attrs: nounwind uwtable
define i32 @Gia_ManFactorGraph(ptr noundef %0, ptr noundef readonly captures(none) %1, ptr noundef readonly captures(none) %2) local_unnamed_addr #0 {
  %4 = getelementptr inbounds nuw i8, ptr %1, i64 4
  %5 = load i32, ptr %4, align 4, !tbaa !11
  %6 = icmp sgt i32 %5, 0
  br i1 %6, label %.lr.ph, label %.critedge

.lr.ph:                                           ; preds = %3
  %7 = getelementptr i8, ptr %1, i64 16
  %8 = getelementptr i8, ptr %2, i64 8
  br label %9

9:                                                ; preds = %.lr.ph, %9
  %indvars.iv = phi i64 [ 0, %.lr.ph ], [ %indvars.iv.next, %9 ]
  %.val = load ptr, ptr %7, align 8, !tbaa !13
  %.val10 = load ptr, ptr %8, align 8, !tbaa !17
  %10 = getelementptr inbounds nuw i32, ptr %.val10, i64 %indvars.iv
  %11 = load i32, ptr %10, align 4, !tbaa !20
  %12 = getelementptr inbounds nuw %struct.Dec_Node_t_, ptr %.val, i64 %indvars.iv, i32 2
  store i32 %11, ptr %12, align 8, !tbaa !14
  %indvars.iv.next = add nuw nsw i64 %indvars.iv, 1
  %13 = load i32, ptr %4, align 4, !tbaa !11
  %14 = sext i32 %13 to i64
  %15 = icmp slt i64 %indvars.iv.next, %14
  br i1 %15, label %9, label %.critedge, !llvm.loop !23

.critedge:                                        ; preds = %9, %3
  %.lcssa11 = phi i32 [ %5, %3 ], [ %13, %9 ]
  %.val.i = load i32, ptr %1, align 8, !tbaa !3
  %.not.i = icmp eq i32 %.val.i, 0
  %16 = getelementptr i8, ptr %1, i64 24
  %.val30.i = load i32, ptr %16, align 8
  br i1 %.not.i, label %20, label %17

17:                                               ; preds = %.critedge
  %18 = and i32 %.val30.i, 1
  %19 = xor i32 %18, 1
  br label %Gia_ManGraphToAig.exit

20:                                               ; preds = %.critedge
  %21 = lshr i32 %.val30.i, 1
  %22 = and i32 %21, 1073741823
  %.not36.i = icmp ult i32 %22, %.lcssa11
  br i1 %.not36.i, label %28, label %.preheader.i

.preheader.i:                                     ; preds = %20
  %23 = getelementptr inbounds nuw i8, ptr %1, i64 8
  %24 = load i32, ptr %23, align 8, !tbaa !12
  %25 = icmp slt i32 %.lcssa11, %24
  tail call void @llvm.assume(i1 %25)
  %26 = getelementptr i8, ptr %1, i64 16
  %27 = zext nneg i32 %.lcssa11 to i64
  br label %35

28:                                               ; preds = %20
  %29 = getelementptr i8, ptr %1, i64 16
  %.val34.i = load ptr, ptr %29, align 8, !tbaa !13
  %30 = zext nneg i32 %22 to i64
  %31 = getelementptr inbounds nuw %struct.Dec_Node_t_, ptr %.val34.i, i64 %30, i32 2
  %32 = load i32, ptr %31, align 8, !tbaa !14
  %33 = and i32 %.val30.i, 1
  %34 = xor i32 %32, %33
  br label %Gia_ManGraphToAig.exit

35:                                               ; preds = %35, %.preheader.i
  %indvars.iv.i = phi i64 [ %27, %.preheader.i ], [ %indvars.iv.next.i, %35 ]
  %.val31.i = load ptr, ptr %26, align 8, !tbaa !13
  %36 = getelementptr inbounds nuw %struct.Dec_Node_t_, ptr %.val31.i, i64 %indvars.iv.i
  %37 = load i32, ptr %36, align 8
  %38 = lshr i32 %37, 1
  %39 = and i32 %38, 1073741823
  %40 = zext nneg i32 %39 to i64
  %41 = getelementptr inbounds nuw %struct.Dec_Node_t_, ptr %.val31.i, i64 %40, i32 2
  %42 = load i32, ptr %41, align 8, !tbaa !14
  %43 = and i32 %37, 1
  %44 = xor i32 %42, %43
  %45 = getelementptr inbounds nuw i8, ptr %36, i64 4
  %46 = load i32, ptr %45, align 4
  %47 = lshr i32 %46, 1
  %48 = and i32 %47, 1073741823
  %49 = zext nneg i32 %48 to i64
  %50 = getelementptr inbounds nuw %struct.Dec_Node_t_, ptr %.val31.i, i64 %49, i32 2
  %51 = load i32, ptr %50, align 8, !tbaa !14
  %52 = and i32 %46, 1
  %53 = xor i32 %51, %52
  %54 = tail call i32 @Gia_ManHashAnd(ptr noundef %0, i32 noundef %44, i32 noundef %53) #18
  %55 = getelementptr inbounds nuw i8, ptr %36, i64 8
  store i32 %54, ptr %55, align 8, !tbaa !14
  %indvars.iv.next.i = add nuw nsw i64 %indvars.iv.i, 1
  %56 = load i32, ptr %23, align 8, !tbaa !12
  %57 = sext i32 %56 to i64
  %58 = icmp slt i64 %indvars.iv.next.i, %57
  br i1 %58, label %35, label %.critedge.i, !llvm.loop !15

.critedge.i:                                      ; preds = %35
  %.val28.i = load i32, ptr %16, align 8
  %59 = and i32 %.val28.i, 1
  %60 = xor i32 %59, %54
  br label %Gia_ManGraphToAig.exit

Gia_ManGraphToAig.exit:                           ; preds = %17, %28, %.critedge.i
  %.0.i = phi i32 [ %19, %17 ], [ %34, %28 ], [ %60, %.critedge.i ]
  ret i32 %.0.i
}